ARM GAS  C:\Users\jeffr\AppData\Local\Temp\ccOYbedj.s 			page 1


   1              		.cpu cortex-m4
   2              		.arch armv7e-m
   3              		.fpu fpv4-sp-d16
   4              		.eabi_attribute 27, 1
   5              		.eabi_attribute 28, 1
   6              		.eabi_attribute 20, 1
   7              		.eabi_attribute 21, 1
   8              		.eabi_attribute 23, 3
   9              		.eabi_attribute 24, 1
  10              		.eabi_attribute 25, 1
  11              		.eabi_attribute 26, 1
  12              		.eabi_attribute 30, 6
  13              		.eabi_attribute 34, 1
  14              		.eabi_attribute 18, 4
  15              		.file	"gpio.c"
  16              		.text
  17              	.Ltext0:
  18              		.cfi_sections	.debug_frame
  19              		.section	.text.MX_GPIO_Init,"ax",%progbits
  20              		.align	1
  21              		.global	MX_GPIO_Init
  22              		.syntax unified
  23              		.thumb
  24              		.thumb_func
  26              	MX_GPIO_Init:
  27              	.LFB130:
  28              		.file 1 "Core/Src/gpio.c"
   1:Core/Src/gpio.c **** /* USER CODE BEGIN Header */
   2:Core/Src/gpio.c **** /**
   3:Core/Src/gpio.c ****   ******************************************************************************
   4:Core/Src/gpio.c ****   * @file    gpio.c
   5:Core/Src/gpio.c ****   * @brief   This file provides code for the configuration
   6:Core/Src/gpio.c ****   *          of all used GPIO pins.
   7:Core/Src/gpio.c ****   ******************************************************************************
   8:Core/Src/gpio.c ****   * @attention
   9:Core/Src/gpio.c ****   *
  10:Core/Src/gpio.c ****   * Copyright (c) 2022 STMicroelectronics.
  11:Core/Src/gpio.c ****   * All rights reserved.
  12:Core/Src/gpio.c ****   *
  13:Core/Src/gpio.c ****   * This software is licensed under terms that can be found in the LICENSE file
  14:Core/Src/gpio.c ****   * in the root directory of this software component.
  15:Core/Src/gpio.c ****   * If no LICENSE file comes with this software, it is provided AS-IS.
  16:Core/Src/gpio.c ****   *
  17:Core/Src/gpio.c ****   ******************************************************************************
  18:Core/Src/gpio.c ****   */
  19:Core/Src/gpio.c **** /* USER CODE END Header */
  20:Core/Src/gpio.c **** 
  21:Core/Src/gpio.c **** /* Includes ------------------------------------------------------------------*/
  22:Core/Src/gpio.c **** #include "gpio.h"
  23:Core/Src/gpio.c **** 
  24:Core/Src/gpio.c **** /* USER CODE BEGIN 0 */
  25:Core/Src/gpio.c **** 
  26:Core/Src/gpio.c **** /* USER CODE END 0 */
  27:Core/Src/gpio.c **** 
  28:Core/Src/gpio.c **** /*----------------------------------------------------------------------------*/
  29:Core/Src/gpio.c **** /* Configure GPIO                                                             */
  30:Core/Src/gpio.c **** /*----------------------------------------------------------------------------*/
ARM GAS  C:\Users\jeffr\AppData\Local\Temp\ccOYbedj.s 			page 2


  31:Core/Src/gpio.c **** /* USER CODE BEGIN 1 */
  32:Core/Src/gpio.c **** 
  33:Core/Src/gpio.c **** /* USER CODE END 1 */
  34:Core/Src/gpio.c **** 
  35:Core/Src/gpio.c **** /** Configure pins
  36:Core/Src/gpio.c **** */
  37:Core/Src/gpio.c **** void MX_GPIO_Init(void)
  38:Core/Src/gpio.c **** {
  29              		.loc 1 38 1
  30              		.cfi_startproc
  31              		@ args = 0, pretend = 0, frame = 24
  32              		@ frame_needed = 1, uses_anonymous_args = 0
  33 0000 80B5     		push	{r7, lr}
  34              	.LCFI0:
  35              		.cfi_def_cfa_offset 8
  36              		.cfi_offset 7, -8
  37              		.cfi_offset 14, -4
  38 0002 86B0     		sub	sp, sp, #24
  39              	.LCFI1:
  40              		.cfi_def_cfa_offset 32
  41 0004 00AF     		add	r7, sp, #0
  42              	.LCFI2:
  43              		.cfi_def_cfa_register 7
  39:Core/Src/gpio.c **** 
  40:Core/Src/gpio.c ****   GPIO_InitTypeDef GPIO_InitStruct = {0};
  44              		.loc 1 40 20
  45 0006 3B1D     		adds	r3, r7, #4
  46 0008 0022     		movs	r2, #0
  47 000a 1A60     		str	r2, [r3]
  48 000c 5A60     		str	r2, [r3, #4]
  49 000e 9A60     		str	r2, [r3, #8]
  50 0010 DA60     		str	r2, [r3, #12]
  51 0012 1A61     		str	r2, [r3, #16]
  52              	.LBB2:
  41:Core/Src/gpio.c **** 
  42:Core/Src/gpio.c ****   /* GPIO Ports Clock Enable */
  43:Core/Src/gpio.c ****   __HAL_RCC_GPIOD_CLK_ENABLE();
  53              		.loc 1 43 3
  54 0014 0023     		movs	r3, #0
  55 0016 3B60     		str	r3, [r7]
  56 0018 114B     		ldr	r3, .L2
  57 001a 1B6B     		ldr	r3, [r3, #48]
  58 001c 104A     		ldr	r2, .L2
  59 001e 43F00803 		orr	r3, r3, #8
  60 0022 1363     		str	r3, [r2, #48]
  61 0024 0E4B     		ldr	r3, .L2
  62 0026 1B6B     		ldr	r3, [r3, #48]
  63 0028 03F00803 		and	r3, r3, #8
  64 002c 3B60     		str	r3, [r7]
  65 002e 3B68     		ldr	r3, [r7]
  66              	.LBE2:
  44:Core/Src/gpio.c **** 
  45:Core/Src/gpio.c ****   /*Configure GPIO pin Output Level */
  46:Core/Src/gpio.c ****   HAL_GPIO_WritePin(GPIOD, GPIO_PIN_12|GPIO_PIN_13, GPIO_PIN_RESET);
  67              		.loc 1 46 3
  68 0030 0022     		movs	r2, #0
  69 0032 4FF44051 		mov	r1, #12288
ARM GAS  C:\Users\jeffr\AppData\Local\Temp\ccOYbedj.s 			page 3


  70 0036 0B48     		ldr	r0, .L2+4
  71 0038 FFF7FEFF 		bl	HAL_GPIO_WritePin
  47:Core/Src/gpio.c **** 
  48:Core/Src/gpio.c ****   /*Configure GPIO pins : PD12 PD13 */
  49:Core/Src/gpio.c ****   GPIO_InitStruct.Pin = GPIO_PIN_12|GPIO_PIN_13;
  72              		.loc 1 49 23
  73 003c 4FF44053 		mov	r3, #12288
  74 0040 7B60     		str	r3, [r7, #4]
  50:Core/Src/gpio.c ****   GPIO_InitStruct.Mode = GPIO_MODE_OUTPUT_PP;
  75              		.loc 1 50 24
  76 0042 0123     		movs	r3, #1
  77 0044 BB60     		str	r3, [r7, #8]
  51:Core/Src/gpio.c ****   GPIO_InitStruct.Pull = GPIO_NOPULL;
  78              		.loc 1 51 24
  79 0046 0023     		movs	r3, #0
  80 0048 FB60     		str	r3, [r7, #12]
  52:Core/Src/gpio.c ****   GPIO_InitStruct.Speed = GPIO_SPEED_FREQ_LOW;
  81              		.loc 1 52 25
  82 004a 0023     		movs	r3, #0
  83 004c 3B61     		str	r3, [r7, #16]
  53:Core/Src/gpio.c ****   HAL_GPIO_Init(GPIOD, &GPIO_InitStruct);
  84              		.loc 1 53 3
  85 004e 3B1D     		adds	r3, r7, #4
  86 0050 1946     		mov	r1, r3
  87 0052 0448     		ldr	r0, .L2+4
  88 0054 FFF7FEFF 		bl	HAL_GPIO_Init
  54:Core/Src/gpio.c **** 
  55:Core/Src/gpio.c **** }
  89              		.loc 1 55 1
  90 0058 00BF     		nop
  91 005a 1837     		adds	r7, r7, #24
  92              	.LCFI3:
  93              		.cfi_def_cfa_offset 8
  94 005c BD46     		mov	sp, r7
  95              	.LCFI4:
  96              		.cfi_def_cfa_register 13
  97              		@ sp needed
  98 005e 80BD     		pop	{r7, pc}
  99              	.L3:
 100              		.align	2
 101              	.L2:
 102 0060 00380240 		.word	1073887232
 103 0064 000C0240 		.word	1073875968
 104              		.cfi_endproc
 105              	.LFE130:
 107              		.text
 108              	.Letext0:
 109              		.file 2 "c:\\arm-tools\\gcc-arm-none-eabi-10.3-2021.10\\arm-none-eabi\\include\\machine\\_default_
 110              		.file 3 "c:\\arm-tools\\gcc-arm-none-eabi-10.3-2021.10\\arm-none-eabi\\include\\sys\\_stdint.h"
 111              		.file 4 "Drivers/CMSIS/Device/ST/STM32F4xx/Include/stm32f407xx.h"
 112              		.file 5 "Drivers/STM32F4xx_HAL_Driver/Inc/stm32f4xx_hal_gpio.h"
ARM GAS  C:\Users\jeffr\AppData\Local\Temp\ccOYbedj.s 			page 4

